(lp1
(lp2
F0.89790181273165248
aF0.033802717129480603
aF0.00019401480488570312
aF0.00025991687168015488
aF0.00065890982900344039
aa(lp3
F0.22571116500458754
aF0.029324971835316939
aF3.2101615134992568e-05
aF8.3085381370320139e-05
aF0.00041879732058654542
aacnumpy.core.multiarray
scalar
p4
(cnumpy
dtype
p5
(S'f8'
I0
I1
tRp6
(I3
S'<'
NNNI-1
I-1
I0
tbS'\x82\x00\x13\x16h.2?'
tRp7
ag4
(g6
S'|\xdb\x0c\x9ck\x7f\x1c?'
tRp8
a(lp9
F0.89790181273165248
aF0.00065890982900344039
ag7
aF0.00025991687168015488
aF0.00019401480488570312
aa(lp10
F0.22571116500458754
aF0.00041879732058654542
ag8
aF8.3085381370320139e-05
aF3.2101615134992568e-05
aa(lp11
F293.39999999999998
aF342.30000000000001
aF391.19999999999999
aF440.09999999999997
aF489
aa(lp12
F0.95099999999999996
aF0.36899999999999999
aF0.41099999999999998
aF0.45800000000000002
aF0.51200000000000001
aa(lp13
F1.5
aF1.75
aF2
aF2.25
aF2.5
aa(lp14
F0.00043116373940300001
aF0.00012368476309299999
aa(lp15
F293.39999999999998
aF391.19999999999999
aF489
aF440.09999999999997
aF342.30000000000001
aa.